target datalayout = "e-m:e-p270:32:32-p271:32:32-p272:64:64-i64:64-i128:128-f80:128-n8:16:32:64-S128"
target triple = "x86_64-pc-linux-gnu"

%struct.KDF_SSKDF = type { ptr, ptr, %struct.PROV_DIGEST, ptr, i64, ptr, i64, ptr, i64, i64, i32 }
%struct.PROV_DIGEST = type { ptr, ptr, ptr }
%struct.ossl_param_st = type { ptr, i32, ptr, i64, i64 }

@.str = private unnamed_addr constant [50 x i8] c"../openssl/providers/implementations/kdfs/sskdf.c\00", align 1
@.str.2 = private unnamed_addr constant [8 x i8] c"KMAC128\00", align 1
@.str.5 = private unnamed_addr constant [7 x i8] c"secret\00", align 1
@.str.6 = private unnamed_addr constant [4 x i8] c"key\00", align 1
@.str.7 = private unnamed_addr constant [5 x i8] c"info\00", align 1
@.str.9 = private unnamed_addr constant [7 x i8] c"digest\00", align 1
@.str.11 = private unnamed_addr constant [5 x i8] c"salt\00", align 1
@.str.12 = private unnamed_addr constant [7 x i8] c"maclen\00", align 1
@.str.13 = private unnamed_addr constant [8 x i8] c"KMAC256\00", align 1
@__func__.sskdf_common_set_ctx_params = private unnamed_addr constant [28 x i8] c"sskdf_common_set_ctx_params\00", align 1

; Function Attrs: inlinehint nounwind uwtable
define internal i32 @ossl_param_is_empty(ptr noundef %0) #5 {
  %2 = alloca ptr, align 8
  store ptr %0, ptr %2, align 8, !tbaa !27
  %3 = load ptr, ptr %2, align 8, !tbaa !27
  %4 = icmp eq ptr %3, null
  br i1 %4, label %10, label %5

5:                                                ; preds = %1
  %6 = load ptr, ptr %2, align 8, !tbaa !27
  %7 = getelementptr inbounds nuw %struct.ossl_param_st, ptr %6, i32 0, i32 0
  %8 = load ptr, ptr %7, align 8, !tbaa !40
  %9 = icmp eq ptr %8, null
  br label %10

10:                                               ; preds = %5, %1
  %11 = phi i1 [ true, %1 ], [ %9, %5 ]
  %12 = zext i1 %11 to i32
  ret i32 %12
}

; Function Attrs: nounwind uwtable
define internal i32 @sskdf_common_set_ctx_params(ptr noundef %0, ptr noundef %1) #0 {
  %3 = alloca i32, align 4
  %4 = alloca ptr, align 8
  %5 = alloca ptr, align 8
  %6 = alloca ptr, align 8
  %7 = alloca ptr, align 8
  %8 = alloca ptr, align 8
  %9 = alloca i64, align 8
  %10 = alloca i32, align 4
  %11 = alloca i32, align 4
  store ptr %0, ptr %4, align 8, !tbaa !3
  store ptr %1, ptr %5, align 8, !tbaa !27
  call void @llvm.lifetime.start.p0(i64 8, ptr %6) #6
  call void @llvm.lifetime.start.p0(i64 8, ptr %7) #6
  %12 = load ptr, ptr %4, align 8, !tbaa !3
  %13 = getelementptr inbounds nuw %struct.KDF_SSKDF, ptr %12, i32 0, i32 0
  %14 = load ptr, ptr %13, align 8, !tbaa !7
  %15 = call ptr @ossl_prov_ctx_get0_libctx(ptr noundef %14)
  store ptr %15, ptr %7, align 8, !tbaa !42
  call void @llvm.lifetime.start.p0(i64 8, ptr %8) #6
  store ptr null, ptr %8, align 8, !tbaa !29
  call void @llvm.lifetime.start.p0(i64 8, ptr %9) #6
  call void @llvm.lifetime.start.p0(i64 4, ptr %10) #6
  %16 = load ptr, ptr %5, align 8, !tbaa !27
  %17 = call i32 @ossl_param_is_empty(ptr noundef %16)
  %18 = icmp ne i32 %17, 0
  br i1 %18, label %19, label %20

19:                                               ; preds = %2
  store i32 1, ptr %3, align 4
  store i32 1, ptr %11, align 4
  br label %127

20:                                               ; preds = %2
  %21 = load ptr, ptr %4, align 8, !tbaa !3
  %22 = getelementptr inbounds nuw %struct.KDF_SSKDF, ptr %21, i32 0, i32 1
  %23 = load ptr, ptr %5, align 8, !tbaa !27
  %24 = load ptr, ptr %7, align 8, !tbaa !42
  %25 = call i32 @ossl_prov_macctx_load_from_params(ptr noundef %22, ptr noundef %23, ptr noundef null, ptr noundef null, ptr noundef null, ptr noundef %24)
  %26 = icmp ne i32 %25, 0
  br i1 %26, label %28, label %27

27:                                               ; preds = %20
  store i32 0, ptr %3, align 4
  store i32 1, ptr %11, align 4
  br label %127

28:                                               ; preds = %20
  %29 = load ptr, ptr %4, align 8, !tbaa !3
  %30 = getelementptr inbounds nuw %struct.KDF_SSKDF, ptr %29, i32 0, i32 1
  %31 = load ptr, ptr %30, align 8, !tbaa !16
  %32 = icmp ne ptr %31, null
  br i1 %32, label %33, label %51

33:                                               ; preds = %28
  %34 = load ptr, ptr %4, align 8, !tbaa !3
  %35 = getelementptr inbounds nuw %struct.KDF_SSKDF, ptr %34, i32 0, i32 1
  %36 = load ptr, ptr %35, align 8, !tbaa !16
  %37 = call ptr @EVP_MAC_CTX_get0_mac(ptr noundef %36)
  %38 = call i32 @EVP_MAC_is_a(ptr noundef %37, ptr noundef @.str.2)
  %39 = icmp ne i32 %38, 0
  br i1 %39, label %47, label %40

40:                                               ; preds = %33
  %41 = load ptr, ptr %4, align 8, !tbaa !3
  %42 = getelementptr inbounds nuw %struct.KDF_SSKDF, ptr %41, i32 0, i32 1
  %43 = load ptr, ptr %42, align 8, !tbaa !16
  %44 = call ptr @EVP_MAC_CTX_get0_mac(ptr noundef %43)
  %45 = call i32 @EVP_MAC_is_a(ptr noundef %44, ptr noundef @.str.13)
  %46 = icmp ne i32 %45, 0
  br i1 %46, label %47, label %50

47:                                               ; preds = %40, %33
  %48 = load ptr, ptr %4, align 8, !tbaa !3
  %49 = getelementptr inbounds nuw %struct.KDF_SSKDF, ptr %48, i32 0, i32 10
  store i32 1, ptr %49, align 8, !tbaa !24
  br label %50

50:                                               ; preds = %47, %40
  br label %51

51:                                               ; preds = %50, %28
  %52 = load ptr, ptr %5, align 8, !tbaa !27
  %53 = call ptr @OSSL_PARAM_locate_const(ptr noundef %52, ptr noundef @.str.9)
  %54 = icmp ne ptr %53, null
  br i1 %54, label %55, label %72

55:                                               ; preds = %51
  %56 = load ptr, ptr %4, align 8, !tbaa !3
  %57 = getelementptr inbounds nuw %struct.KDF_SSKDF, ptr %56, i32 0, i32 2
  %58 = load ptr, ptr %5, align 8, !tbaa !27
  %59 = load ptr, ptr %7, align 8, !tbaa !42
  %60 = call i32 @ossl_prov_digest_load_from_params(ptr noundef %57, ptr noundef %58, ptr noundef %59)
  %61 = icmp ne i32 %60, 0
  br i1 %61, label %63, label %62

62:                                               ; preds = %55
  store i32 0, ptr %3, align 4
  store i32 1, ptr %11, align 4
  br label %127

63:                                               ; preds = %55
  %64 = load ptr, ptr %4, align 8, !tbaa !3
  %65 = getelementptr inbounds nuw %struct.KDF_SSKDF, ptr %64, i32 0, i32 2
  %66 = call ptr @ossl_prov_digest_md(ptr noundef %65)
  store ptr %66, ptr %8, align 8, !tbaa !29
  %67 = load ptr, ptr %8, align 8, !tbaa !29
  %68 = call i32 @EVP_MD_xof(ptr noundef %67)
  %69 = icmp ne i32 %68, 0
  br i1 %69, label %70, label %71

70:                                               ; preds = %63
  call void @ERR_new()
  call void @ERR_set_debug(ptr noundef @.str, i32 noundef 581, ptr noundef @__func__.sskdf_common_set_ctx_params)
  call void (i32, i32, ptr, ...) @ERR_set_error(i32 noundef 57, i32 noundef 183, ptr noundef null)
  store i32 0, ptr %3, align 4
  store i32 1, ptr %11, align 4
  br label %127

71:                                               ; preds = %63
  br label %72

72:                                               ; preds = %71, %51
  %73 = load ptr, ptr %5, align 8, !tbaa !27
  %74 = load ptr, ptr %4, align 8, !tbaa !3
  %75 = getelementptr inbounds nuw %struct.KDF_SSKDF, ptr %74, i32 0, i32 3
  %76 = load ptr, ptr %4, align 8, !tbaa !3
  %77 = getelementptr inbounds nuw %struct.KDF_SSKDF, ptr %76, i32 0, i32 4
  %78 = call i32 @ossl_param_get1_octet_string(ptr noundef %73, ptr noundef @.str.5, ptr noundef %75, ptr noundef %77)
  store i32 %78, ptr %10, align 4, !tbaa !32
  %79 = load i32, ptr %10, align 4, !tbaa !32
  %80 = icmp eq i32 %79, -1
  br i1 %80, label %81, label %88

81:                                               ; preds = %72
  %82 = load ptr, ptr %5, align 8, !tbaa !27
  %83 = load ptr, ptr %4, align 8, !tbaa !3
  %84 = getelementptr inbounds nuw %struct.KDF_SSKDF, ptr %83, i32 0, i32 3
  %85 = load ptr, ptr %4, align 8, !tbaa !3
  %86 = getelementptr inbounds nuw %struct.KDF_SSKDF, ptr %85, i32 0, i32 4
  %87 = call i32 @ossl_param_get1_octet_string(ptr noundef %82, ptr noundef @.str.6, ptr noundef %84, ptr noundef %86)
  store i32 %87, ptr %10, align 4, !tbaa !32
  br label %88

88:                                               ; preds = %81, %72
  %89 = load i32, ptr %10, align 4, !tbaa !32
  %90 = icmp eq i32 %89, 0
  br i1 %90, label %91, label %92

91:                                               ; preds = %88
  store i32 0, ptr %3, align 4
  store i32 1, ptr %11, align 4
  br label %127

92:                                               ; preds = %88
  %93 = load ptr, ptr %5, align 8, !tbaa !27
  %94 = load ptr, ptr %4, align 8, !tbaa !3
  %95 = getelementptr inbounds nuw %struct.KDF_SSKDF, ptr %94, i32 0, i32 5
  %96 = load ptr, ptr %4, align 8, !tbaa !3
  %97 = getelementptr inbounds nuw %struct.KDF_SSKDF, ptr %96, i32 0, i32 6
  %98 = call i32 @ossl_param_get1_concat_octet_string(ptr noundef %93, ptr noundef @.str.7, ptr noundef %95, ptr noundef %97, i64 noundef 0)
  %99 = icmp eq i32 %98, 0
  br i1 %99, label %100, label %101

100:                                              ; preds = %92
  store i32 0, ptr %3, align 4
  store i32 1, ptr %11, align 4
  br label %127

101:                                              ; preds = %92
  %102 = load ptr, ptr %5, align 8, !tbaa !27
  %103 = load ptr, ptr %4, align 8, !tbaa !3
  %104 = getelementptr inbounds nuw %struct.KDF_SSKDF, ptr %103, i32 0, i32 7
  %105 = load ptr, ptr %4, align 8, !tbaa !3
  %106 = getelementptr inbounds nuw %struct.KDF_SSKDF, ptr %105, i32 0, i32 8
  %107 = call i32 @ossl_param_get1_octet_string(ptr noundef %102, ptr noundef @.str.11, ptr noundef %104, ptr noundef %106)
  %108 = icmp eq i32 %107, 0
  br i1 %108, label %109, label %110

109:                                              ; preds = %101
  store i32 0, ptr %3, align 4
  store i32 1, ptr %11, align 4
  br label %127

110:                                              ; preds = %101
  %111 = load ptr, ptr %5, align 8, !tbaa !27
  %112 = call ptr @OSSL_PARAM_locate_const(ptr noundef %111, ptr noundef @.str.12)
  store ptr %112, ptr %6, align 8, !tbaa !27
  %113 = icmp ne ptr %112, null
  br i1 %113, label %114, label %126

114:                                              ; preds = %110
  %115 = load ptr, ptr %6, align 8, !tbaa !27
  %116 = call i32 @OSSL_PARAM_get_size_t(ptr noundef %115, ptr noundef %9)
  %117 = icmp ne i32 %116, 0
  br i1 %117, label %118, label %121

118:                                              ; preds = %114
  %119 = load i64, ptr %9, align 8, !tbaa !26
  %120 = icmp eq i64 %119, 0
  br i1 %120, label %121, label %122

121:                                              ; preds = %118, %114
  store i32 0, ptr %3, align 4
  store i32 1, ptr %11, align 4
  br label %127

122:                                              ; preds = %118
  %123 = load i64, ptr %9, align 8, !tbaa !26
  %124 = load ptr, ptr %4, align 8, !tbaa !3
  %125 = getelementptr inbounds nuw %struct.KDF_SSKDF, ptr %124, i32 0, i32 9
  store i64 %123, ptr %125, align 8, !tbaa !23
  br label %126

126:                                              ; preds = %122, %110
  store i32 1, ptr %3, align 4
  store i32 1, ptr %11, align 4
  br label %127

127:                                              ; preds = %126, %121, %109, %100, %91, %70, %62, %27, %19
  call void @llvm.lifetime.end.p0(i64 4, ptr %10) #6
  call void @llvm.lifetime.end.p0(i64 8, ptr %9) #6
  call void @llvm.lifetime.end.p0(i64 8, ptr %8) #6
  call void @llvm.lifetime.end.p0(i64 8, ptr %7) #6
  call void @llvm.lifetime.end.p0(i64 8, ptr %6) #6
  %128 = load i32, ptr %3, align 4
  ret i32 %128
}