; Function Attrs: nounwind uwtable
define internal fastcc range(i32 0, 2) i32 @sskdf_common_set_ctx_params(ptr noundef %0, ptr noundef %1) unnamed_addr #0 {
  %3 = alloca i64, align 8
  %4 = load ptr, ptr %0, align 8, !tbaa !3
  %5 = tail call ptr @ossl_prov_ctx_get0_libctx(ptr noundef %4) #7
  call void @llvm.lifetime.start.p0(i64 8, ptr nonnull %3) #7
  %6 = icmp eq ptr %1, null
  br i1 %6, label %ossl_param_is_empty.exit.thread, label %ossl_param_is_empty.exit

ossl_param_is_empty.exit:                         ; preds = %2
  %7 = load ptr, ptr %1, align 8, !tbaa !24
  %.not = icmp eq ptr %7, null
  br i1 %.not, label %ossl_param_is_empty.exit.thread, label %8

8:                                                ; preds = %ossl_param_is_empty.exit
  %9 = getelementptr inbounds nuw i8, ptr %0, i64 8
  %10 = tail call i32 @ossl_prov_macctx_load_from_params(ptr noundef nonnull %9, ptr noundef nonnull %1, ptr noundef null, ptr noundef null, ptr noundef null, ptr noundef %5) #7
  %.not38 = icmp eq i32 %10, 0
  br i1 %.not38, label %ossl_param_is_empty.exit.thread, label %11

11:                                               ; preds = %8
  %12 = load ptr, ptr %9, align 8, !tbaa !15
  %.not39 = icmp eq ptr %12, null
  br i1 %.not39, label %22, label %13

13:                                               ; preds = %11
  %14 = tail call ptr @EVP_MAC_CTX_get0_mac(ptr noundef nonnull %12) #7
  %15 = tail call i32 @EVP_MAC_is_a(ptr noundef %14, ptr noundef nonnull @.str.2) #7
  %.not40 = icmp eq i32 %15, 0
  br i1 %.not40, label %16, label %20

16:                                               ; preds = %13
  %17 = load ptr, ptr %9, align 8, !tbaa !15
  %18 = tail call ptr @EVP_MAC_CTX_get0_mac(ptr noundef %17) #7
  %19 = tail call i32 @EVP_MAC_is_a(ptr noundef %18, ptr noundef nonnull @.str.13) #7
  %.not41 = icmp eq i32 %19, 0
  br i1 %.not41, label %22, label %20

20:                                               ; preds = %16, %13
  %21 = getelementptr inbounds nuw i8, ptr %0, i64 96
  store i32 1, ptr %21, align 8, !tbaa !23
  br label %22

22:                                               ; preds = %16, %20, %11
  %23 = tail call ptr @OSSL_PARAM_locate_const(ptr noundef nonnull %1, ptr noundef nonnull @.str.9) #7
  %.not42 = icmp eq ptr %23, null
  br i1 %.not42, label %31, label %24

24:                                               ; preds = %22
  %25 = getelementptr inbounds nuw i8, ptr %0, i64 16
  %26 = tail call i32 @ossl_prov_digest_load_from_params(ptr noundef nonnull %25, ptr noundef nonnull %1, ptr noundef %5) #7
  %.not43 = icmp eq i32 %26, 0
  br i1 %.not43, label %ossl_param_is_empty.exit.thread, label %27

27:                                               ; preds = %24
  %28 = tail call ptr @ossl_prov_digest_md(ptr noundef nonnull %25) #7
  %29 = tail call i32 @EVP_MD_xof(ptr noundef %28) #7
  %.not44 = icmp eq i32 %29, 0
  br i1 %.not44, label %31, label %30

30:                                               ; preds = %27
  tail call void @ERR_new() #7
  tail call void @ERR_set_debug(ptr noundef nonnull @.str, i32 noundef 581, ptr noundef nonnull @__func__.sskdf_common_set_ctx_params) #7
  tail call void (i32, i32, ptr, ...) @ERR_set_error(i32 noundef 57, i32 noundef 183, ptr noundef null) #7
  br label %ossl_param_is_empty.exit.thread

31:                                               ; preds = %27, %22
  %32 = getelementptr inbounds nuw i8, ptr %0, i64 40
  %33 = getelementptr inbounds nuw i8, ptr %0, i64 48
  %34 = tail call i32 @ossl_param_get1_octet_string(ptr noundef nonnull %1, ptr noundef nonnull @.str.5, ptr noundef nonnull %32, ptr noundef nonnull %33) #7
  %35 = icmp eq i32 %34, -1
  br i1 %35, label %36, label %38

36:                                               ; preds = %31
  %37 = tail call i32 @ossl_param_get1_octet_string(ptr noundef nonnull %1, ptr noundef nonnull @.str.6, ptr noundef nonnull %32, ptr noundef nonnull %33) #7
  br label %38

38:                                               ; preds = %36, %31
  %.0 = phi i32 [ %37, %36 ], [ %34, %31 ]
  %39 = icmp eq i32 %.0, 0
  br i1 %39, label %ossl_param_is_empty.exit.thread, label %40

40:                                               ; preds = %38
  %41 = getelementptr inbounds nuw i8, ptr %0, i64 56
  %42 = getelementptr inbounds nuw i8, ptr %0, i64 64
  %43 = tail call i32 @ossl_param_get1_concat_octet_string(ptr noundef nonnull %1, ptr noundef nonnull @.str.7, ptr noundef nonnull %41, ptr noundef nonnull %42, i64 noundef 0) #7
  %44 = icmp eq i32 %43, 0
  br i1 %44, label %ossl_param_is_empty.exit.thread, label %45

45:                                               ; preds = %40
  %46 = getelementptr inbounds nuw i8, ptr %0, i64 72
  %47 = getelementptr inbounds nuw i8, ptr %0, i64 80
  %48 = tail call i32 @ossl_param_get1_octet_string(ptr noundef nonnull %1, ptr noundef nonnull @.str.11, ptr noundef nonnull %46, ptr noundef nonnull %47) #7
  %49 = icmp eq i32 %48, 0
  br i1 %49, label %ossl_param_is_empty.exit.thread, label %50

50:                                               ; preds = %45
  %51 = tail call ptr @OSSL_PARAM_locate_const(ptr noundef nonnull %1, ptr noundef nonnull @.str.12) #7
  %.not45 = icmp eq ptr %51, null
  br i1 %.not45, label %ossl_param_is_empty.exit.thread, label %52

52:                                               ; preds = %50
  %53 = call i32 @OSSL_PARAM_get_size_t(ptr noundef nonnull %51, ptr noundef nonnull %3) #7
  %54 = icmp eq i32 %53, 0
  %55 = load i64, ptr %3, align 8
  %56 = icmp eq i64 %55, 0
  %or.cond = select i1 %54, i1 true, i1 %56
  br i1 %or.cond, label %ossl_param_is_empty.exit.thread, label %57

57:                                               ; preds = %52
  %58 = getelementptr inbounds nuw i8, ptr %0, i64 88
  store i64 %55, ptr %58, align 8, !tbaa !22
  br label %ossl_param_is_empty.exit.thread

ossl_param_is_empty.exit.thread:                  ; preds = %2, %50, %57, %52, %45, %40, %38, %24, %8, %ossl_param_is_empty.exit, %30
  %.033 = phi i32 [ 0, %30 ], [ 1, %ossl_param_is_empty.exit ], [ 0, %8 ], [ 0, %24 ], [ 0, %38 ], [ 0, %40 ], [ 0, %45 ], [ 0, %52 ], [ 1, %57 ], [ 1, %50 ], [ 1, %2 ]
  call void @llvm.lifetime.end.p0(i64 8, ptr nonnull %3) #7
  ret i32 %.033
}